ccopy_reg
_reconstructor
p0
(cargparse
Namespace
p1
c__builtin__
object
p2
Ntp3
Rp4
(dp5
S'max_vocab'
p6
I200000
sS'verbose'
p7
I2
sS'lr_shrink'
p8
F0.5
sS'dico_threshold'
p9
I0
sS'n_epochs'
p10
I5
sS'dis_layers'
p11
I2
sS'export'
p12
S'txt'
p13
sS'exp_path'
p14
S'/gpfs/loomis/home.grace/fas/frank/wcm24/voynich2vec/MUSE/dumped/debug/q0vj4xhxcm'
p15
sS'tgt_emb'
p16
S'../models/republic.vec'
p17
sS'dis_lambda'
p18
I1
sS'map_optimizer'
p19
S'sgd,lr=0.1'
p20
sS'exp_name'
p21
S'debug'
p22
sS'min_lr'
p23
F1e-06
sS'map_id_init'
p24
I01
sS'adversarial'
p25
I01
sS'dis_most_frequent'
p26
I980
sS'epoch_size'
p27
I100000
sS'src_emb'
p28
S'../models/voynich.vec'
p29
sS'dis_input_dropout'
p30
F0.1
sS'dis_optimizer'
p31
g20
sS'dis_hid_dim'
p32
I2048
sS'lr_decay'
p33
F0.98
sS'normalize_embeddings'
p34
S''
p35
sS'dis_clip_weights'
p36
I0
sS'n_refinement'
p37
I5
sS'batch_size'
p38
I32
sS'dis_steps'
p39
I5
sS'map_beta'
p40
F0.001
sS'exp_id'
p41
g35
sS'dico_min_size'
p42
I0
sS'dis_smooth'
p43
F0.1
sS'dico_max_size'
p44
I0
sS'dico_max_rank'
p45
I0
sS'dico_build'
p46
S'S2T&T2S'
p47
sS'emb_dim'
p48
I100
sS'seed'
p49
I-1
sS'cuda'
p50
I01
sS'dico_method'
p51
S'csls_knn_10'
p52
sS'src_lang'
p53
S'vy'
p54
sS'tgt_lang'
p55
S'en'
p56
sS'dis_dropout'
p57
F0.0
sb.